target datalayout = "e-m:e-p270:32:32-p271:32:32-p272:64:64-i64:64-i128:128-f80:128-n8:16:32:64-S128"
target triple = "x86_64-pc-linux-gnu"

%struct.MinRegMan_t_ = type { i32, i32, i32, i32, i32, i32, i32, i32, i32, i32, i32, ptr, i32, i32, i32, i32, i32, i32, i32, i32, i32, ptr, ptr, ptr, ptr, ptr, ptr, ptr, ptr, ptr, i32 }
%struct.Abc_Ntk_t_ = type { i32, i32, ptr, ptr, ptr, ptr, ptr, ptr, ptr, ptr, ptr, ptr, ptr, [11 x i32], i32, i32, i32, i32, ptr, i32, ptr, ptr, i32, i32, i32, double, i32, %struct.Vec_Int_t_, ptr, ptr, ptr, ptr, ptr, float, i32, ptr, ptr, ptr, ptr, ptr, ptr, ptr, ptr, ptr, ptr, ptr, ptr, ptr, ptr, ptr, ptr, ptr, ptr, ptr, ptr, ptr, ptr }
%struct.Vec_Int_t_ = type { i32, i32, ptr }
%struct.Flow_Data_t_ = type { i16, %union.anon, i32 }
%union.anon = type { ptr }
%struct.Abc_Obj_t_ = type { ptr, ptr, i32, i32, %struct.Vec_Int_t_, %struct.Vec_Int_t_, %union.anon.0, %union.anon.1 }
%union.anon.0 = type { ptr }
%union.anon.1 = type { ptr }
%struct.Vec_Ptr_t_ = type { i32, i32, ptr }

@pManMR = external global ptr, align 8

; Function Attrs: inlinehint nounwind uwtable
define internal void @Abc_FlowRetime_SetInitValue(ptr noundef %0, i32 noundef %1, i32 noundef %2) #2 {
  %4 = alloca ptr, align 8
  %5 = alloca i32, align 4
  %6 = alloca i32, align 4
  store ptr %0, ptr %4, align 8, !tbaa !34
  store i32 %1, ptr %5, align 4, !tbaa !19
  store i32 %2, ptr %6, align 4, !tbaa !19
  %7 = load ptr, ptr @pManMR, align 8, !tbaa !8
  %8 = getelementptr inbounds nuw %struct.MinRegMan_t_, ptr %7, i32 0, i32 23
  %9 = load ptr, ptr %8, align 8, !tbaa !36
  %10 = load ptr, ptr %4, align 8, !tbaa !34
  %11 = call i32 @Abc_ObjId(ptr noundef %10)
  %12 = zext i32 %11 to i64
  %13 = getelementptr inbounds nuw %struct.Flow_Data_t_, ptr %9, i64 %12
  %14 = load i16, ptr %13, align 8
  %15 = zext i16 %14 to i32
  %16 = and i32 %15, -97
  %17 = trunc i32 %16 to i16
  store i16 %17, ptr %13, align 8
  %18 = load i32, ptr %6, align 4, !tbaa !19
  %19 = icmp ne i32 %18, 0
  br i1 %19, label %48, label %20

20:                                               ; preds = %3
  %21 = load i32, ptr %5, align 4, !tbaa !19
  %22 = icmp ne i32 %21, 0
  br i1 %22, label %23, label %35

23:                                               ; preds = %20
  %24 = load ptr, ptr @pManMR, align 8, !tbaa !8
  %25 = getelementptr inbounds nuw %struct.MinRegMan_t_, ptr %24, i32 0, i32 23
  %26 = load ptr, ptr %25, align 8, !tbaa !36
  %27 = load ptr, ptr %4, align 8, !tbaa !34
  %28 = call i32 @Abc_ObjId(ptr noundef %27)
  %29 = zext i32 %28 to i64
  %30 = getelementptr inbounds nuw %struct.Flow_Data_t_, ptr %26, i64 %29
  %31 = load i16, ptr %30, align 8
  %32 = zext i16 %31 to i32
  %33 = or i32 %32, 64
  %34 = trunc i32 %33 to i16
  store i16 %34, ptr %30, align 8
  br label %47

35:                                               ; preds = %20
  %36 = load ptr, ptr @pManMR, align 8, !tbaa !8
  %37 = getelementptr inbounds nuw %struct.MinRegMan_t_, ptr %36, i32 0, i32 23
  %38 = load ptr, ptr %37, align 8, !tbaa !36
  %39 = load ptr, ptr %4, align 8, !tbaa !34
  %40 = call i32 @Abc_ObjId(ptr noundef %39)
  %41 = zext i32 %40 to i64
  %42 = getelementptr inbounds nuw %struct.Flow_Data_t_, ptr %38, i64 %41
  %43 = load i16, ptr %42, align 8
  %44 = zext i16 %43 to i32
  %45 = or i32 %44, 32
  %46 = trunc i32 %45 to i16
  store i16 %46, ptr %42, align 8
  br label %47

47:                                               ; preds = %35, %23
  br label %48

48:                                               ; preds = %47, %3
  ret void
}

; Function Attrs: inlinehint nounwind uwtable
define internal i32 @Abc_ObjId(ptr noundef %0) #2 {
  %2 = alloca ptr, align 8
  store ptr %0, ptr %2, align 8, !tbaa !34
  %3 = load ptr, ptr %2, align 8, !tbaa !34
  %4 = getelementptr inbounds nuw %struct.Abc_Obj_t_, ptr %3, i32 0, i32 2
  %5 = load i32, ptr %4, align 8, !tbaa !59
  ret i32 %5
}

; Function Attrs: inlinehint nounwind uwtable
define internal ptr @Abc_ObjFanin(ptr noundef %0, i32 noundef %1) #2 {
  %3 = alloca ptr, align 8
  %4 = alloca i32, align 4
  store ptr %0, ptr %3, align 8, !tbaa !34
  store i32 %1, ptr %4, align 4, !tbaa !19
  %5 = load ptr, ptr %3, align 8, !tbaa !34
  %6 = getelementptr inbounds nuw %struct.Abc_Obj_t_, ptr %5, i32 0, i32 0
  %7 = load ptr, ptr %6, align 8, !tbaa !53
  %8 = getelementptr inbounds nuw %struct.Abc_Ntk_t_, ptr %7, i32 0, i32 5
  %9 = load ptr, ptr %8, align 8, !tbaa !41
  %10 = getelementptr inbounds nuw %struct.Vec_Ptr_t_, ptr %9, i32 0, i32 2
  %11 = load ptr, ptr %10, align 8, !tbaa !55
  %12 = load ptr, ptr %3, align 8, !tbaa !34
  %13 = getelementptr inbounds nuw %struct.Abc_Obj_t_, ptr %12, i32 0, i32 4
  %14 = getelementptr inbounds nuw %struct.Vec_Int_t_, ptr %13, i32 0, i32 2
  %15 = load ptr, ptr %14, align 8, !tbaa !56
  %16 = load i32, ptr %4, align 4, !tbaa !19
  %17 = sext i32 %16 to i64
  %18 = getelementptr inbounds i32, ptr %15, i64 %17
  %19 = load i32, ptr %18, align 4, !tbaa !19
  %20 = sext i32 %19 to i64
  %21 = getelementptr inbounds ptr, ptr %11, i64 %20
  %22 = load ptr, ptr %21, align 8, !tbaa !57
  ret ptr %22
}

; Function Attrs: nounwind uwtable
define internal void @Abc_FlowRetime_SimulateSop(ptr noundef %0, ptr noundef %1) #0 {
  %3 = alloca ptr, align 8
  %4 = alloca ptr, align 8
  %5 = alloca ptr, align 8
  %6 = alloca ptr, align 8
  %7 = alloca i32, align 4
  %8 = alloca i32, align 4
  %9 = alloca i32, align 4
  %10 = alloca i32, align 4
  %11 = alloca i32, align 4
  %12 = alloca i32, align 4
  %13 = alloca i32, align 4
  %14 = alloca i32, align 4
  store ptr %0, ptr %3, align 8, !tbaa !34
  store ptr %1, ptr %4, align 8, !tbaa !126
  call void @llvm.lifetime.start.p0(i64 8, ptr %5) #10
  call void @llvm.lifetime.start.p0(i64 8, ptr %6) #10
  call void @llvm.lifetime.start.p0(i64 4, ptr %7) #10
  call void @llvm.lifetime.start.p0(i64 4, ptr %8) #10
  call void @llvm.lifetime.start.p0(i64 4, ptr %9) #10
  call void @llvm.lifetime.start.p0(i64 4, ptr %10) #10
  call void @llvm.lifetime.start.p0(i64 4, ptr %11) #10
  call void @llvm.lifetime.start.p0(i64 4, ptr %12) #10
  call void @llvm.lifetime.start.p0(i64 4, ptr %13) #10
  call void @llvm.lifetime.start.p0(i64 4, ptr %14) #10
  store i32 0, ptr %10, align 4, !tbaa !19
  store i32 0, ptr %13, align 4, !tbaa !19
  %15 = load ptr, ptr %4, align 8, !tbaa !126
  %16 = call i32 @Abc_SopGetVarNum(ptr noundef %15)
  store i32 %16, ptr %7, align 4, !tbaa !19
  %17 = load ptr, ptr %4, align 8, !tbaa !126
  store ptr %17, ptr %6, align 8, !tbaa !126
  br label %18

18:                                               ; preds = %112, %2
  %19 = load ptr, ptr %6, align 8, !tbaa !126
  %20 = load i8, ptr %19, align 1, !tbaa !42
  %21 = icmp ne i8 %20, 0
  br i1 %21, label %22, label %118

22:                                               ; preds = %18
  store i32 1, ptr %9, align 4, !tbaa !19
  store i32 0, ptr %12, align 4, !tbaa !19
  store i32 0, ptr %8, align 4, !tbaa !19
  br label %23

23:                                               ; preds = %96, %22
  %24 = load ptr, ptr %6, align 8, !tbaa !126
  %25 = load i32, ptr %8, align 4, !tbaa !19
  %26 = sext i32 %25 to i64
  %27 = getelementptr inbounds i8, ptr %24, i64 %26
  %28 = load i8, ptr %27, align 1, !tbaa !42
  %29 = sext i8 %28 to i32
  %30 = icmp ne i32 %29, 32
  br i1 %30, label %31, label %39

31:                                               ; preds = %23
  %32 = load ptr, ptr %6, align 8, !tbaa !126
  %33 = load i32, ptr %8, align 4, !tbaa !19
  %34 = sext i32 %33 to i64
  %35 = getelementptr inbounds i8, ptr %32, i64 %34
  %36 = load i8, ptr %35, align 1, !tbaa !42
  %37 = sext i8 %36 to i32
  store i32 %37, ptr %14, align 4, !tbaa !19
  %38 = icmp ne i32 %37, 0
  br label %39

39:                                               ; preds = %31, %23
  %40 = phi i1 [ false, %23 ], [ %38, %31 ]
  br i1 %40, label %41, label %99

41:                                               ; preds = %39
  %42 = load ptr, ptr %3, align 8, !tbaa !34
  %43 = load i32, ptr %8, align 4, !tbaa !19
  %44 = call ptr @Abc_ObjFanin(ptr noundef %42, i32 noundef %43)
  store ptr %44, ptr %5, align 8, !tbaa !34
  %45 = load i32, ptr %14, align 4, !tbaa !19
  %46 = icmp eq i32 %45, 48
  br i1 %46, label %47, label %60

47:                                               ; preds = %41
  %48 = load ptr, ptr @pManMR, align 8, !tbaa !8
  %49 = getelementptr inbounds nuw %struct.MinRegMan_t_, ptr %48, i32 0, i32 23
  %50 = load ptr, ptr %49, align 8, !tbaa !36
  %51 = load ptr, ptr %5, align 8, !tbaa !34
  %52 = call i32 @Abc_ObjId(ptr noundef %51)
  %53 = zext i32 %52 to i64
  %54 = getelementptr inbounds nuw %struct.Flow_Data_t_, ptr %50, i64 %53
  %55 = load i16, ptr %54, align 8
  %56 = zext i16 %55 to i32
  %57 = and i32 %56, 32
  %58 = icmp ne i32 %57, 0
  %59 = select i1 %58, i32 1, i32 0
  store i32 %59, ptr %11, align 4, !tbaa !19
  br label %78

60:                                               ; preds = %41
  %61 = load i32, ptr %14, align 4, !tbaa !19
  %62 = icmp eq i32 %61, 49
  br i1 %62, label %63, label %76

63:                                               ; preds = %60
  %64 = load ptr, ptr @pManMR, align 8, !tbaa !8
  %65 = getelementptr inbounds nuw %struct.MinRegMan_t_, ptr %64, i32 0, i32 23
  %66 = load ptr, ptr %65, align 8, !tbaa !36
  %67 = load ptr, ptr %5, align 8, !tbaa !34
  %68 = call i32 @Abc_ObjId(ptr noundef %67)
  %69 = zext i32 %68 to i64
  %70 = getelementptr inbounds nuw %struct.Flow_Data_t_, ptr %66, i64 %69
  %71 = load i16, ptr %70, align 8
  %72 = zext i16 %71 to i32
  %73 = and i32 %72, 64
  %74 = icmp ne i32 %73, 0
  %75 = select i1 %74, i32 1, i32 0
  store i32 %75, ptr %11, align 4, !tbaa !19
  br label %77

76:                                               ; preds = %60
  br label %96

77:                                               ; preds = %63
  br label %78

78:                                               ; preds = %77, %47
  %79 = load ptr, ptr @pManMR, align 8, !tbaa !8
  %80 = getelementptr inbounds nuw %struct.MinRegMan_t_, ptr %79, i32 0, i32 23
  %81 = load ptr, ptr %80, align 8, !tbaa !36
  %82 = load ptr, ptr %5, align 8, !tbaa !34
  %83 = call i32 @Abc_ObjId(ptr noundef %82)
  %84 = zext i32 %83 to i64
  %85 = getelementptr inbounds nuw %struct.Flow_Data_t_, ptr %81, i64 %84
  %86 = load i16, ptr %85, align 8
  %87 = zext i16 %86 to i32
  %88 = and i32 %87, 96
  %89 = icmp ne i32 %88, 0
  br i1 %89, label %90, label %94

90:                                               ; preds = %78
  %91 = load i32, ptr %11, align 4, !tbaa !19
  %92 = load i32, ptr %9, align 4, !tbaa !19
  %93 = and i32 %92, %91
  store i32 %93, ptr %9, align 4, !tbaa !19
  br label %95

94:                                               ; preds = %78
  store i32 1, ptr %12, align 4, !tbaa !19
  br label %95

95:                                               ; preds = %94, %90
  br label %96

96:                                               ; preds = %95, %76
  %97 = load i32, ptr %8, align 4, !tbaa !19
  %98 = add nsw i32 %97, 1
  store i32 %98, ptr %8, align 4, !tbaa !19
  br label %23, !llvm.loop !127

99:                                               ; preds = %39
  %100 = load i32, ptr %9, align 4, !tbaa !19
  %101 = icmp ne i32 %100, 0
  br i1 %101, label %103, label %102

102:                                              ; preds = %99
  store i32 0, ptr %12, align 4, !tbaa !19
  br label %103

103:                                              ; preds = %102, %99
  %104 = load i32, ptr %12, align 4, !tbaa !19
  %105 = icmp ne i32 %104, 0
  br i1 %105, label %106, label %107

106:                                              ; preds = %103
  store i32 1, ptr %13, align 4, !tbaa !19
  br label %111

107:                                              ; preds = %103
  %108 = load i32, ptr %9, align 4, !tbaa !19
  %109 = load i32, ptr %10, align 4, !tbaa !19
  %110 = or i32 %109, %108
  store i32 %110, ptr %10, align 4, !tbaa !19
  br label %111

111:                                              ; preds = %107, %106
  br label %112

112:                                              ; preds = %111
  %113 = load i32, ptr %7, align 4, !tbaa !19
  %114 = add nsw i32 %113, 3
  %115 = load ptr, ptr %6, align 8, !tbaa !126
  %116 = sext i32 %114 to i64
  %117 = getelementptr inbounds i8, ptr %115, i64 %116
  store ptr %117, ptr %6, align 8, !tbaa !126
  br label %18, !llvm.loop !128

118:                                              ; preds = %18
  %119 = load i32, ptr %10, align 4, !tbaa !19
  %120 = icmp ne i32 %119, 0
  br i1 %120, label %121, label %122

121:                                              ; preds = %118
  store i32 0, ptr %13, align 4, !tbaa !19
  br label %122

122:                                              ; preds = %121, %118
  %123 = load ptr, ptr %4, align 8, !tbaa !126
  %124 = call i32 @Abc_SopGetPhase(ptr noundef %123)
  %125 = icmp ne i32 %124, 0
  br i1 %125, label %129, label %126

126:                                              ; preds = %122
  %127 = load i32, ptr %10, align 4, !tbaa !19
  %128 = xor i32 %127, 1
  store i32 %128, ptr %10, align 4, !tbaa !19
  br label %129

129:                                              ; preds = %126, %122
  %130 = load ptr, ptr %3, align 8, !tbaa !34
  %131 = load i32, ptr %10, align 4, !tbaa !19
  %132 = load i32, ptr %13, align 4, !tbaa !19
  call void @Abc_FlowRetime_SetInitValue(ptr noundef %130, i32 noundef %131, i32 noundef %132)
  call void @llvm.lifetime.end.p0(i64 4, ptr %14) #10
  call void @llvm.lifetime.end.p0(i64 4, ptr %13) #10
  call void @llvm.lifetime.end.p0(i64 4, ptr %12) #10
  call void @llvm.lifetime.end.p0(i64 4, ptr %11) #10
  call void @llvm.lifetime.end.p0(i64 4, ptr %10) #10
  call void @llvm.lifetime.end.p0(i64 4, ptr %9) #10
  call void @llvm.lifetime.end.p0(i64 4, ptr %8) #10
  call void @llvm.lifetime.end.p0(i64 4, ptr %7) #10
  call void @llvm.lifetime.end.p0(i64 8, ptr %6) #10
  call void @llvm.lifetime.end.p0(i64 8, ptr %5) #10
  ret void
}