; Function Attrs: nounwind uwtable
define internal fastcc void @Abc_FlowRetime_SimulateSop(ptr noundef readonly captures(none) %0, ptr noundef %1) unnamed_addr #0 {
  %3 = tail call i32 @Abc_SopGetVarNum(ptr noundef %1) #18
  %4 = load i8, ptr %1, align 1, !tbaa !49
  %.not57 = icmp eq i8 %4, 0
  br i1 %.not57, label %._crit_edge, label %.preheader.lr.ph

.preheader.lr.ph:                                 ; preds = %2
  %5 = getelementptr i8, ptr %0, i64 32
  %6 = load ptr, ptr @pManMR, align 8
  %7 = getelementptr inbounds nuw i8, ptr %6, i64 112
  %8 = sext i32 %3 to i64
  br label %.preheader

.preheader:                                       ; preds = %.preheader.lr.ph, %.critedge
  %9 = phi i8 [ %4, %.preheader.lr.ph ], [ %35, %.critedge ]
  %.060 = phi ptr [ %1, %.preheader.lr.ph ], [ %34, %.critedge ]
  %.02859 = phi i32 [ 0, %.preheader.lr.ph ], [ %.1, %.critedge ]
  %.03358 = phi i32 [ 0, %.preheader.lr.ph ], [ %.134, %.critedge ]
  br label %10

10:                                               ; preds = %.preheader, %31
  %11 = phi i8 [ %9, %.preheader ], [ %.pre, %31 ]
  %indvars.iv = phi i64 [ 0, %.preheader ], [ %indvars.iv.next, %31 ]
  %.036 = phi i32 [ 1, %.preheader ], [ %.137, %31 ]
  %.029 = phi i32 [ 0, %.preheader ], [ %.130, %31 ]
  switch i8 %11, label %12 [
    i8 32, label %.critedge
    i8 0, label %.critedge
  ]

12:                                               ; preds = %10
  %.val53 = load ptr, ptr %0, align 8, !tbaa !43
  %.val54 = load ptr, ptr %5, align 8, !tbaa !46
  %13 = getelementptr i8, ptr %.val53, i64 32
  %.val53.val = load ptr, ptr %13, align 8, !tbaa !32
  %14 = getelementptr i8, ptr %.val53.val, i64 8
  %.val53.val.val = load ptr, ptr %14, align 8, !tbaa !41
  %15 = getelementptr inbounds nuw i32, ptr %.val54, i64 %indvars.iv
  %16 = load i32, ptr %15, align 4, !tbaa !37
  %17 = sext i32 %16 to i64
  %18 = getelementptr inbounds ptr, ptr %.val53.val.val, i64 %17
  %19 = load ptr, ptr %18, align 8, !tbaa !42
  switch i8 %11, label %31 [
    i8 48, label %21
    i8 49, label %20
  ]

20:                                               ; preds = %12
  br label %21

21:                                               ; preds = %12, %20
  %.sink64 = phi i16 [ 6, %20 ], [ 5, %12 ]
  %22 = load ptr, ptr %7, align 8, !tbaa !47
  %23 = getelementptr i8, ptr %19, i64 16
  %.val51 = load i32, ptr %23, align 8, !tbaa !48
  %24 = zext i32 %.val51 to i64
  %25 = getelementptr inbounds nuw %struct.Flow_Data_t_, ptr %22, i64 %24
  %26 = load i16, ptr %25, align 8
  %27 = and i16 %26, 96
  %.not49 = icmp eq i16 %27, 0
  br i1 %.not49, label %31, label %28

28:                                               ; preds = %21
  %29 = lshr i16 %26, %.sink64
  %.032.in = and i16 %29, 1
  %.032 = zext nneg i16 %.032.in to i32
  %30 = and i32 %.036, %.032
  br label %31

31:                                               ; preds = %21, %12, %28
  %.137 = phi i32 [ %30, %28 ], [ %.036, %12 ], [ %.036, %21 ]
  %.130 = phi i32 [ %.029, %28 ], [ %.029, %12 ], [ 1, %21 ]
  %indvars.iv.next = add nuw nsw i64 %indvars.iv, 1
  %.phi.trans.insert = getelementptr inbounds nuw i8, ptr %.060, i64 %indvars.iv.next
  %.pre = load i8, ptr %.phi.trans.insert, align 1, !tbaa !49
  br label %10, !llvm.loop !114

.critedge:                                        ; preds = %10, %10
  %.not44 = icmp eq i32 %.036, 0
  %.not4555 = icmp eq i32 %.029, 0
  %.not45 = select i1 %.not44, i1 true, i1 %.not4555
  %32 = select i1 %.not45, i32 %.036, i32 0
  %.134 = or i32 %32, %.03358
  %.1 = select i1 %.not45, i32 %.02859, i32 1
  %33 = getelementptr i8, ptr %.060, i64 %8
  %34 = getelementptr i8, ptr %33, i64 3
  %35 = load i8, ptr %34, align 1, !tbaa !49
  %.not = icmp eq i8 %35, 0
  br i1 %.not, label %._crit_edge.loopexit, label %.preheader, !llvm.loop !115

._crit_edge.loopexit:                             ; preds = %.critedge
  %36 = icmp eq i32 %.1, 0
  br label %._crit_edge

._crit_edge:                                      ; preds = %._crit_edge.loopexit, %2
  %.033.lcssa = phi i32 [ 0, %2 ], [ %.134, %._crit_edge.loopexit ]
  %.028.lcssa = phi i1 [ true, %2 ], [ %36, %._crit_edge.loopexit ]
  %.not40 = icmp ne i32 %.033.lcssa, 0
  %37 = tail call i32 @Abc_SopGetPhase(ptr noundef nonnull %1) #18
  %38 = load ptr, ptr @pManMR, align 8, !tbaa !3
  %39 = getelementptr inbounds nuw i8, ptr %38, i64 112
  %40 = load ptr, ptr %39, align 8, !tbaa !47
  %41 = getelementptr i8, ptr %0, i64 16
  %.val6.i = load i32, ptr %41, align 8, !tbaa !48
  %42 = zext i32 %.val6.i to i64
  %43 = getelementptr inbounds nuw %struct.Flow_Data_t_, ptr %40, i64 %42
  %44 = load i16, ptr %43, align 8
  %45 = and i16 %44, -97
  store i16 %45, ptr %43, align 8
  %.not.i = select i1 %.not40, i1 true, i1 %.028.lcssa
  br i1 %.not.i, label %.sink.split.i, label %Abc_FlowRetime_SetInitValue.exit

.sink.split.i:                                    ; preds = %._crit_edge
  %.not41 = icmp eq i32 %37, 0
  %46 = zext i1 %.not41 to i32
  %.not4.i = icmp eq i32 %.033.lcssa, %46
  %47 = load ptr, ptr @pManMR, align 8, !tbaa !3
  %48 = getelementptr inbounds nuw i8, ptr %47, i64 112
  %49 = load ptr, ptr %48, align 8, !tbaa !47
  %.val.i = load i32, ptr %41, align 8, !tbaa !48
  %50 = zext i32 %.val.i to i64
  %51 = getelementptr inbounds nuw %struct.Flow_Data_t_, ptr %49, i64 %50
  %52 = load i16, ptr %51, align 8
  %..i = select i1 %.not4.i, i16 32, i16 64
  %53 = or i16 %52, %..i
  store i16 %53, ptr %51, align 8
  br label %Abc_FlowRetime_SetInitValue.exit

Abc_FlowRetime_SetInitValue.exit:                 ; preds = %._crit_edge, %.sink.split.i
  ret void
}